target datalayout = "e-m:e-p270:32:32-p271:32:32-p272:64:64-i64:64-i128:128-f80:128-n8:16:32:64-S128"
target triple = "x86_64-pc-linux-gnu"

%struct.NODE = type { ptr, ptr, ptr }
%struct.QueryOperand = type { i8, i8, i8, i32, i32 }
%struct.QueryOperator = type { i8, i8, i16, i32 }

; Function Attrs: nounwind uwtable
define internal i32 @calcstrlen(ptr noundef %0) #0 {
  %2 = alloca ptr, align 8
  %3 = alloca i32, align 4
  store ptr %0, ptr %2, align 8
  call void @llvm.lifetime.start.p0(i64 4, ptr %3) #5
  store i32 0, ptr %3, align 4
  %4 = load ptr, ptr %2, align 8
  %5 = getelementptr inbounds nuw %struct.NODE, ptr %4, i32 0, i32 2
  %6 = load ptr, ptr %5, align 8
  %7 = load i8, ptr %6, align 4
  %8 = sext i8 %7 to i32
  %9 = icmp eq i32 %8, 1
  br i1 %9, label %10, label %18

10:                                               ; preds = %1
  %11 = load ptr, ptr %2, align 8
  %12 = getelementptr inbounds nuw %struct.NODE, ptr %11, i32 0, i32 2
  %13 = load ptr, ptr %12, align 8
  %14 = getelementptr inbounds nuw %struct.QueryOperand, ptr %13, i32 0, i32 4
  %15 = load i32, ptr %14, align 4
  %16 = and i32 %15, 4095
  %17 = add i32 %16, 1
  store i32 %17, ptr %3, align 4
  br label %38

18:                                               ; preds = %1
  %19 = load ptr, ptr %2, align 8
  %20 = getelementptr inbounds nuw %struct.NODE, ptr %19, i32 0, i32 1
  %21 = load ptr, ptr %20, align 8
  %22 = call i32 @calcstrlen(ptr noundef %21)
  store i32 %22, ptr %3, align 4
  %23 = load ptr, ptr %2, align 8
  %24 = getelementptr inbounds nuw %struct.NODE, ptr %23, i32 0, i32 2
  %25 = load ptr, ptr %24, align 8
  %26 = getelementptr inbounds nuw %struct.QueryOperator, ptr %25, i32 0, i32 1
  %27 = load i8, ptr %26, align 1
  %28 = sext i8 %27 to i32
  %29 = icmp ne i32 %28, 1
  br i1 %29, label %30, label %37

30:                                               ; preds = %18
  %31 = load ptr, ptr %2, align 8
  %32 = getelementptr inbounds nuw %struct.NODE, ptr %31, i32 0, i32 0
  %33 = load ptr, ptr %32, align 8
  %34 = call i32 @calcstrlen(ptr noundef %33)
  %35 = load i32, ptr %3, align 4
  %36 = add i32 %35, %34
  store i32 %36, ptr %3, align 4
  br label %37

37:                                               ; preds = %30, %18
  br label %38

38:                                               ; preds = %37, %10
  %39 = load i32, ptr %3, align 4
  call void @llvm.lifetime.end.p0(i64 4, ptr %3) #5
  ret i32 %39
}