; Function Attrs: nofree nosync nounwind memory(read, inaccessiblemem: none) uwtable
define internal fastcc i32 @calcstrlen(ptr noundef readonly captures(none) %0) unnamed_addr #3 {
  %2 = getelementptr inbounds nuw i8, ptr %0, i64 16
  %3 = load ptr, ptr %2, align 8
  %4 = load i8, ptr %3, align 4
  %5 = icmp eq i8 %4, 1
  br i1 %5, label %tailrecurse._crit_edge, label %.lr.ph

tailrecurse._crit_edge:                           ; preds = %tailrecurse, %1
  %accumulator.tr.lcssa = phi i32 [ 0, %1 ], [ %17, %tailrecurse ]
  %.lcssa = phi ptr [ %3, %1 ], [ %19, %tailrecurse ]
  %6 = getelementptr inbounds nuw i8, ptr %.lcssa, i64 8
  %7 = load i32, ptr %6, align 4
  %8 = and i32 %7, 4095
  %9 = add nuw nsw i32 %8, 1
  br label %.loopexit

.lr.ph:                                           ; preds = %1, %tailrecurse
  %10 = phi ptr [ %19, %tailrecurse ], [ %3, %1 ]
  %.tr11 = phi ptr [ %16, %tailrecurse ], [ %0, %1 ]
  %accumulator.tr10 = phi i32 [ %17, %tailrecurse ], [ 0, %1 ]
  %11 = getelementptr inbounds nuw i8, ptr %.tr11, i64 8
  %12 = load ptr, ptr %11, align 8
  %13 = tail call fastcc i32 @calcstrlen(ptr noundef %12)
  %14 = getelementptr inbounds nuw i8, ptr %10, i64 1
  %15 = load i8, ptr %14, align 1
  %.not = icmp eq i8 %15, 1
  br i1 %.not, label %.loopexit, label %tailrecurse

tailrecurse:                                      ; preds = %.lr.ph
  %16 = load ptr, ptr %.tr11, align 8
  %17 = add i32 %13, %accumulator.tr10
  %18 = getelementptr inbounds nuw i8, ptr %16, i64 16
  %19 = load ptr, ptr %18, align 8
  %20 = load i8, ptr %19, align 4
  %21 = icmp eq i8 %20, 1
  br i1 %21, label %tailrecurse._crit_edge, label %.lr.ph

.loopexit:                                        ; preds = %.lr.ph, %tailrecurse._crit_edge
  %accumulator.tr8 = phi i32 [ %accumulator.tr.lcssa, %tailrecurse._crit_edge ], [ %accumulator.tr10, %.lr.ph ]
  %.0 = phi i32 [ %9, %tailrecurse._crit_edge ], [ %13, %.lr.ph ]
  %accumulator.ret.tr = add i32 %.0, %accumulator.tr8
  ret i32 %accumulator.ret.tr
}